; Function Attrs: nounwind uwtable
define ptr @lean_process_cutsat_eq_lit(ptr noundef %0, ptr noundef %1, ptr noundef %2, ptr noundef %3, ptr noundef %4, ptr noundef %5, ptr noundef %6, ptr noundef %7, ptr noundef %8, ptr noundef %9, ptr noundef %10) local_unnamed_addr #1 {
  %12 = tail call ptr @l_Lean_Meta_Grind_Arith_Cutsat_foreignTerm_x3f(ptr noundef %0, ptr noundef %2, ptr noundef %3, ptr noundef %4, ptr noundef %5, ptr noundef %6, ptr noundef %7, ptr noundef %8, ptr noundef %9, ptr noundef %10) #7
  %13 = getelementptr inbounds nuw i8, ptr %12, i64 8
  %14 = load ptr, ptr %13, align 8, !tbaa !9
  %15 = ptrtoint ptr %14 to i64
  %16 = and i64 %15, 1
  %.not = icmp eq i64 %16, 0
  br i1 %.not, label %17, label %lean_obj_tag.exit

17:                                               ; preds = %11
  %.val.i = load i32, ptr %14, align 4, !tbaa !4
  %18 = icmp sgt i32 %.val.i, 0
  br i1 %18, label %19, label %21, !prof !11

19:                                               ; preds = %17
  %20 = add nuw i32 %.val.i, 1
  store i32 %20, ptr %14, align 4, !tbaa !4
  br label %lean_obj_tag.exit.thread

21:                                               ; preds = %17
  %.not.i53 = icmp eq i32 %.val.i, 0
  br i1 %.not.i53, label %lean_obj_tag.exit.thread, label %22

22:                                               ; preds = %21
  tail call void @lean_inc_ref_cold(ptr noundef nonnull %14) #7
  br label %lean_obj_tag.exit.thread

lean_obj_tag.exit:                                ; preds = %11
  %23 = and i64 %15, 8589934590
  %24 = icmp eq i64 %23, 0
  br i1 %24, label %27, label %lean_dec.exit47

lean_obj_tag.exit.thread:                         ; preds = %19, %21, %22
  %25 = getelementptr i8, ptr %14, i64 4
  %.val.i55 = load i32, ptr %25, align 4
  %26 = icmp ult i32 %.val.i55, 16777216
  br i1 %26, label %27, label %.thread

27:                                               ; preds = %lean_obj_tag.exit.thread, %lean_obj_tag.exit
  %28 = getelementptr inbounds nuw i8, ptr %12, i64 16
  %29 = load ptr, ptr %28, align 8, !tbaa !9
  %30 = ptrtoint ptr %29 to i64
  %31 = and i64 %30, 1
  %.not66 = icmp eq i64 %31, 0
  br i1 %.not66, label %32, label %lean_inc.exit45

32:                                               ; preds = %27
  %.val.i56 = load i32, ptr %29, align 4, !tbaa !4
  %33 = icmp sgt i32 %.val.i56, 0
  br i1 %33, label %34, label %36, !prof !11

34:                                               ; preds = %32
  %35 = add nuw i32 %.val.i56, 1
  store i32 %35, ptr %29, align 4, !tbaa !4
  br label %lean_inc.exit45

36:                                               ; preds = %32
  %.not.i57 = icmp eq i32 %.val.i56, 0
  br i1 %.not.i57, label %lean_inc.exit45, label %37

37:                                               ; preds = %36
  tail call void @lean_inc_ref_cold(ptr noundef nonnull %29) #7
  br label %lean_inc.exit45

lean_inc.exit45:                                  ; preds = %37, %36, %34, %27
  %38 = ptrtoint ptr %12 to i64
  %39 = and i64 %38, 1
  %.not67 = icmp eq i64 %39, 0
  br i1 %.not67, label %40, label %lean_dec.exit48

40:                                               ; preds = %lean_inc.exit45
  %41 = load i32, ptr %12, align 4, !tbaa !4
  %42 = icmp sgt i32 %41, 1
  br i1 %42, label %43, label %45, !prof !11

43:                                               ; preds = %40
  %44 = add nsw i32 %41, -1
  store i32 %44, ptr %12, align 4, !tbaa !4
  br label %lean_dec.exit48

45:                                               ; preds = %40
  %.not.i = icmp eq i32 %41, 0
  br i1 %.not.i, label %lean_dec.exit48, label %46

46:                                               ; preds = %45
  tail call void @lean_dec_ref_cold(ptr noundef nonnull %12) #7
  br label %lean_dec.exit48

lean_dec.exit48:                                  ; preds = %46, %45, %43, %lean_inc.exit45
  %47 = tail call ptr @l___private_Lean_Meta_Tactic_Grind_Arith_Cutsat_EqCnstr_0__Lean_Meta_Grind_Arith_Cutsat_processNewIntLitEq(ptr noundef %0, ptr noundef %1, ptr noundef %2, ptr noundef %3, ptr noundef %4, ptr noundef %5, ptr noundef %6, ptr noundef %7, ptr noundef %8, ptr noundef %9, ptr noundef %29)
  br label %74

.thread:                                          ; preds = %lean_obj_tag.exit.thread
  %48 = load i32, ptr %14, align 4, !tbaa !4
  %49 = icmp sgt i32 %48, 1
  br i1 %49, label %50, label %52, !prof !11

50:                                               ; preds = %.thread
  %51 = add nsw i32 %48, -1
  store i32 %51, ptr %14, align 4, !tbaa !4
  br label %lean_dec.exit47

52:                                               ; preds = %.thread
  %.not.i49 = icmp eq i32 %48, 0
  br i1 %.not.i49, label %lean_dec.exit47, label %53

53:                                               ; preds = %52
  tail call void @lean_dec_ref_cold(ptr noundef nonnull %14) #7
  br label %lean_dec.exit47

lean_dec.exit47:                                  ; preds = %lean_obj_tag.exit, %53, %52, %50
  %54 = getelementptr inbounds nuw i8, ptr %12, i64 16
  %55 = load ptr, ptr %54, align 8, !tbaa !9
  %56 = ptrtoint ptr %55 to i64
  %57 = and i64 %56, 1
  %.not64 = icmp eq i64 %57, 0
  br i1 %.not64, label %58, label %lean_inc.exit

58:                                               ; preds = %lean_dec.exit47
  %.val.i59 = load i32, ptr %55, align 4, !tbaa !4
  %59 = icmp sgt i32 %.val.i59, 0
  br i1 %59, label %60, label %62, !prof !11

60:                                               ; preds = %58
  %61 = add nuw i32 %.val.i59, 1
  store i32 %61, ptr %55, align 4, !tbaa !4
  br label %lean_inc.exit

62:                                               ; preds = %58
  %.not.i60 = icmp eq i32 %.val.i59, 0
  br i1 %.not.i60, label %lean_inc.exit, label %63

63:                                               ; preds = %62
  tail call void @lean_inc_ref_cold(ptr noundef nonnull %55) #7
  br label %lean_inc.exit

lean_inc.exit:                                    ; preds = %63, %62, %60, %lean_dec.exit47
  %64 = ptrtoint ptr %12 to i64
  %65 = and i64 %64, 1
  %.not65 = icmp eq i64 %65, 0
  br i1 %.not65, label %66, label %lean_dec.exit

66:                                               ; preds = %lean_inc.exit
  %67 = load i32, ptr %12, align 4, !tbaa !4
  %68 = icmp sgt i32 %67, 1
  br i1 %68, label %69, label %71, !prof !11

69:                                               ; preds = %66
  %70 = add nsw i32 %67, -1
  store i32 %70, ptr %12, align 4, !tbaa !4
  br label %lean_dec.exit

71:                                               ; preds = %66
  %.not.i51 = icmp eq i32 %67, 0
  br i1 %.not.i51, label %lean_dec.exit, label %72

72:                                               ; preds = %71
  tail call void @lean_dec_ref_cold(ptr noundef nonnull %12) #7
  br label %lean_dec.exit

lean_dec.exit:                                    ; preds = %72, %71, %69, %lean_inc.exit
  %73 = tail call ptr @l___private_Lean_Meta_Tactic_Grind_Arith_Cutsat_EqCnstr_0__Lean_Meta_Grind_Arith_Cutsat_processNewNatEq(ptr noundef %0, ptr noundef %1, ptr noundef %2, ptr noundef %3, ptr noundef %4, ptr noundef %5, ptr noundef %6, ptr noundef %7, ptr noundef %8, ptr noundef %9, ptr noundef %55)
  br label %74

74:                                               ; preds = %lean_dec.exit, %lean_dec.exit48
  %.0 = phi ptr [ %47, %lean_dec.exit48 ], [ %73, %lean_dec.exit ]
  ret ptr %.0
}